; Function Attrs: nounwind uwtable
define internal ptr @get_errno(ptr noundef readonly captures(none) %0, ptr readnone captures(none) %1) #0 {
  %3 = alloca ptr, align 8
  %4 = tail call i32 (ptr, ptr, ...) @PySys_Audit(ptr noundef nonnull @.str.55, ptr noundef null) #10
  %5 = icmp slt i32 %4, 0
  br i1 %5, label %20, label %6

6:                                                ; preds = %2
  %7 = getelementptr i8, ptr %0, i64 32
  %.val = load ptr, ptr %7, align 8, !tbaa !56
  call void @llvm.lifetime.start.p0(i64 8, ptr nonnull %3) #10
  %8 = call ptr @_ctypes_get_errobj(ptr noundef %.val, ptr noundef nonnull %3)
  %9 = icmp eq ptr %8, null
  br i1 %9, label %get_error_internal.exit, label %10

10:                                               ; preds = %6
  %11 = load ptr, ptr %3, align 8, !tbaa !12
  %12 = load i32, ptr %11, align 4, !tbaa !43
  %13 = sext i32 %12 to i64
  %14 = tail call ptr @PyLong_FromLong(i64 noundef %13) #10
  %15 = load i32, ptr %8, align 8, !tbaa !11
  %.not.i.i = icmp sgt i32 %15, -1
  br i1 %.not.i.i, label %16, label %get_error_internal.exit

16:                                               ; preds = %10
  %17 = add nsw i32 %15, -1
  store i32 %17, ptr %8, align 8, !tbaa !11
  %18 = icmp eq i32 %17, 0
  br i1 %18, label %19, label %get_error_internal.exit

19:                                               ; preds = %16
  tail call void @_Py_Dealloc(ptr noundef nonnull %8) #10
  br label %get_error_internal.exit

get_error_internal.exit:                          ; preds = %6, %10, %16, %19
  %.0.i = phi ptr [ null, %6 ], [ %14, %10 ], [ %14, %16 ], [ %14, %19 ]
  call void @llvm.lifetime.end.p0(i64 8, ptr nonnull %3) #10
  br label %20

20:                                               ; preds = %2, %get_error_internal.exit
  %.0 = phi ptr [ %.0.i, %get_error_internal.exit ], [ null, %2 ]
  ret ptr %.0
}